target datalayout = "e-m:e-p270:32:32-p271:32:32-p272:64:64-i64:64-i128:128-f80:128-n8:16:32:64-S128"
target triple = "x86_64-pc-linux-gnu"

%"struct.faiss::simd8float32" = type { %"struct.faiss::simd256bit" }
%"struct.faiss::simd256bit" = type { %union.anon.15 }
%union.anon.15 = type { [8 x i32] }

; Function Attrs: mustprogress nounwind uwtable
define linkonce_odr void @_ZNK5faiss10simd256bit6storeuEPv(ptr noundef nonnull align 4 dereferenceable(32) %0, ptr noundef %1) #0 comdat align 2 {
  %3 = alloca ptr, align 8
  %4 = alloca ptr, align 8
  store ptr %0, ptr %3, align 8
  store ptr %1, ptr %4, align 8
  %5 = load ptr, ptr %3, align 8
  %6 = load ptr, ptr %4, align 8
  %7 = getelementptr inbounds %"struct.faiss::simd256bit", ptr %5, i32 0, i32 0
  %8 = getelementptr inbounds [32 x i8], ptr %7, i64 0, i64 0
  call void @llvm.memcpy.p0.p0.i64(ptr align 1 %6, ptr align 4 %8, i64 32, i1 false)
  ret void
}

; Function Attrs: mustprogress nounwind uwtable
define linkonce_odr void @_ZN5faiss12simd8float32C2Ev(ptr noundef nonnull align 4 dereferenceable(32) %0) unnamed_addr #0 comdat align 2 {
  %2 = alloca ptr, align 8
  store ptr %0, ptr %2, align 8
  %3 = load ptr, ptr %2, align 8
  call void @_ZN5faiss10simd256bitC2Ev(ptr noundef nonnull align 4 dereferenceable(32) %3)
  ret void
}

; Function Attrs: mustprogress nounwind uwtable
define linkonce_odr void @_ZN5faiss10simd256bit5loaduEPKv(ptr noundef nonnull align 4 dereferenceable(32) %0, ptr noundef %1) #0 comdat align 2 {
  %3 = alloca ptr, align 8
  %4 = alloca ptr, align 8
  store ptr %0, ptr %3, align 8
  store ptr %1, ptr %4, align 8
  %5 = load ptr, ptr %3, align 8
  %6 = getelementptr inbounds %"struct.faiss::simd256bit", ptr %5, i32 0, i32 0
  %7 = getelementptr inbounds [32 x i8], ptr %6, i64 0, i64 0
  %8 = load ptr, ptr %4, align 8
  call void @llvm.memcpy.p0.p0.i64(ptr align 4 %7, ptr align 1 %8, i64 32, i1 false)
  ret void
}

; Function Attrs: mustprogress nounwind uwtable
define linkonce_odr void @_ZN5faiss12simd8float324set1Ef(ptr noundef nonnull align 4 dereferenceable(32) %0, float noundef %1) #0 comdat align 2 {
  %3 = alloca ptr, align 8
  %4 = alloca float, align 4
  %5 = alloca i32, align 4
  store ptr %0, ptr %3, align 8
  store float %1, ptr %4, align 4
  %6 = load ptr, ptr %3, align 8
  store i32 0, ptr %5, align 4
  br label %7

7:                                                ; preds = %16, %2
  %8 = load i32, ptr %5, align 4
  %9 = icmp slt i32 %8, 8
  br i1 %9, label %10, label %19

10:                                               ; preds = %7
  %11 = load float, ptr %4, align 4
  %12 = getelementptr inbounds %"struct.faiss::simd256bit", ptr %6, i32 0, i32 0
  %13 = load i32, ptr %5, align 4
  %14 = sext i32 %13 to i64
  %15 = getelementptr inbounds [8 x float], ptr %12, i64 0, i64 %14
  store float %11, ptr %15, align 4
  br label %16

16:                                               ; preds = %10
  %17 = load i32, ptr %5, align 4
  %18 = add nsw i32 %17, 1
  store i32 %18, ptr %5, align 4
  br label %7, !llvm.loop !13

19:                                               ; preds = %7
  ret void
}

; Function Attrs: mustprogress nounwind uwtable
define linkonce_odr void @_ZN5faiss10simd256bitC2Ev(ptr noundef nonnull align 4 dereferenceable(32) %0) unnamed_addr #0 comdat align 2 {
  %2 = alloca ptr, align 8
  store ptr %0, ptr %2, align 8
  ret void
}

; Function Attrs: mustprogress uwtable
define linkonce_odr void @_ZNK5faiss10simd256bit5storeEPv(ptr noundef nonnull align 4 dereferenceable(32) %0, ptr noundef %1) #2 comdat align 2 {
  %3 = alloca ptr, align 8
  %4 = alloca ptr, align 8
  store ptr %0, ptr %3, align 8
  store ptr %1, ptr %4, align 8
  %5 = load ptr, ptr %3, align 8
  %6 = load ptr, ptr %4, align 8
  call void @_ZNK5faiss10simd256bit6storeuEPv(ptr noundef nonnull align 4 dereferenceable(32) %5, ptr noundef %6)
  ret void
}

; Function Attrs: mustprogress uwtable
define linkonce_odr void @_ZN5faiss5fmaddERKNS_12simd8float32ES2_S2_(ptr dead_on_unwind noalias writable sret(%"struct.faiss::simd8float32") align 4 %0, ptr noundef nonnull align 4 dereferenceable(32) %1, ptr noundef nonnull align 4 dereferenceable(32) %2, ptr noundef nonnull align 4 dereferenceable(32) %3) #2 comdat {
  %5 = alloca ptr, align 8
  %6 = alloca ptr, align 8
  %7 = alloca ptr, align 8
  %8 = alloca i32, align 4
  store ptr %1, ptr %5, align 8
  store ptr %2, ptr %6, align 8
  store ptr %3, ptr %7, align 8
  call void @_ZN5faiss12simd8float32C2Ev(ptr noundef nonnull align 4 dereferenceable(32) %0)
  store i32 0, ptr %8, align 4
  br label %9

9:                                                ; preds = %36, %4
  %10 = load i32, ptr %8, align 4
  %11 = icmp slt i32 %10, 8
  br i1 %11, label %12, label %39

12:                                               ; preds = %9
  %13 = load ptr, ptr %5, align 8
  %14 = getelementptr inbounds %"struct.faiss::simd256bit", ptr %13, i32 0, i32 0
  %15 = load i32, ptr %8, align 4
  %16 = sext i32 %15 to i64
  %17 = getelementptr inbounds [8 x float], ptr %14, i64 0, i64 %16
  %18 = load float, ptr %17, align 4
  %19 = load ptr, ptr %6, align 8
  %20 = getelementptr inbounds %"struct.faiss::simd256bit", ptr %19, i32 0, i32 0
  %21 = load i32, ptr %8, align 4
  %22 = sext i32 %21 to i64
  %23 = getelementptr inbounds [8 x float], ptr %20, i64 0, i64 %22
  %24 = load float, ptr %23, align 4
  %25 = load ptr, ptr %7, align 8
  %26 = getelementptr inbounds %"struct.faiss::simd256bit", ptr %25, i32 0, i32 0
  %27 = load i32, ptr %8, align 4
  %28 = sext i32 %27 to i64
  %29 = getelementptr inbounds [8 x float], ptr %26, i64 0, i64 %28
  %30 = load float, ptr %29, align 4
  %31 = call float @llvm.fmuladd.f32(float %18, float %24, float %30)
  %32 = getelementptr inbounds %"struct.faiss::simd256bit", ptr %0, i32 0, i32 0
  %33 = load i32, ptr %8, align 4
  %34 = sext i32 %33 to i64
  %35 = getelementptr inbounds [8 x float], ptr %32, i64 0, i64 %34
  store float %31, ptr %35, align 4
  br label %36

36:                                               ; preds = %12
  %37 = load i32, ptr %8, align 4
  %38 = add nsw i32 %37, 1
  store i32 %38, ptr %8, align 4
  br label %9, !llvm.loop !12

39:                                               ; preds = %9
  ret void
}

; Function Attrs: mustprogress uwtable
define linkonce_odr void @_ZN5faiss12simd8float32C2EPKf(ptr noundef nonnull align 4 dereferenceable(32) %0, ptr noundef %1) unnamed_addr #2 comdat align 2 {
  %3 = alloca ptr, align 8
  %4 = alloca ptr, align 8
  store ptr %0, ptr %3, align 8
  store ptr %1, ptr %4, align 8
  %5 = load ptr, ptr %3, align 8
  call void @_ZN5faiss10simd256bitC2Ev(ptr noundef nonnull align 4 dereferenceable(32) %5)
  %6 = load ptr, ptr %4, align 8
  call void @_ZN5faiss10simd256bit5loaduEPKv(ptr noundef nonnull align 4 dereferenceable(32) %5, ptr noundef %6)
  ret void
}

; Function Attrs: mustprogress uwtable
define linkonce_odr void @_ZN5faiss12simd8float32C2Ef(ptr noundef nonnull align 4 dereferenceable(32) %0, float noundef %1) unnamed_addr #2 comdat align 2 {
  %3 = alloca ptr, align 8
  %4 = alloca float, align 4
  store ptr %0, ptr %3, align 8
  store float %1, ptr %4, align 4
  %5 = load ptr, ptr %3, align 8
  call void @_ZN5faiss10simd256bitC2Ev(ptr noundef nonnull align 4 dereferenceable(32) %5)
  %6 = load float, ptr %4, align 4
  call void @_ZN5faiss12simd8float324set1Ef(ptr noundef nonnull align 4 dereferenceable(32) %5, float noundef %6)
  ret void
}

; Function Attrs: mustprogress uwtable
define void @_ZN5faiss14fvec_madd_simdEmPKffS1_Pf(i64 noundef %0, ptr noundef %1, float noundef %2, ptr noundef %3, ptr noundef %4) #2 {
  %6 = alloca i64, align 8
  %7 = alloca ptr, align 8
  %8 = alloca float, align 4
  %9 = alloca ptr, align 8
  %10 = alloca ptr, align 8
  %11 = alloca %"struct.faiss::simd8float32", align 4
  %12 = alloca i64, align 8
  %13 = alloca %"struct.faiss::simd8float32", align 4
  %14 = alloca %"struct.faiss::simd8float32", align 4
  %15 = alloca %"struct.faiss::simd8float32", align 4
  store i64 %0, ptr %6, align 8
  store ptr %1, ptr %7, align 8
  store float %2, ptr %8, align 4
  store ptr %3, ptr %9, align 8
  store ptr %4, ptr %10, align 8
  %16 = load float, ptr %8, align 4
  call void @_ZN5faiss12simd8float32C2Ef(ptr noundef nonnull align 4 dereferenceable(32) %11, float noundef %16)
  %17 = load i64, ptr %6, align 8
  %18 = udiv i64 %17, 8
  store i64 %18, ptr %6, align 8
  store i64 0, ptr %12, align 8
  br label %19

19:                                               ; preds = %33, %5
  %20 = load i64, ptr %12, align 8
  %21 = load i64, ptr %6, align 8
  %22 = icmp ult i64 %20, %21
  br i1 %22, label %23, label %36

23:                                               ; preds = %19
  %24 = load ptr, ptr %7, align 8
  call void @_ZN5faiss12simd8float32C2EPKf(ptr noundef nonnull align 4 dereferenceable(32) %13, ptr noundef %24)
  %25 = load ptr, ptr %9, align 8
  call void @_ZN5faiss12simd8float32C2EPKf(ptr noundef nonnull align 4 dereferenceable(32) %14, ptr noundef %25)
  call void @_ZN5faiss5fmaddERKNS_12simd8float32ES2_S2_(ptr dead_on_unwind writable sret(%"struct.faiss::simd8float32") align 4 %15, ptr noundef nonnull align 4 dereferenceable(32) %11, ptr noundef nonnull align 4 dereferenceable(32) %14, ptr noundef nonnull align 4 dereferenceable(32) %13)
  %26 = load ptr, ptr %10, align 8
  call void @_ZNK5faiss10simd256bit5storeEPv(ptr noundef nonnull align 4 dereferenceable(32) %15, ptr noundef %26)
  %27 = load ptr, ptr %10, align 8
  %28 = getelementptr inbounds float, ptr %27, i64 8
  store ptr %28, ptr %10, align 8
  %29 = load ptr, ptr %7, align 8
  %30 = getelementptr inbounds float, ptr %29, i64 8
  store ptr %30, ptr %7, align 8
  %31 = load ptr, ptr %9, align 8
  %32 = getelementptr inbounds float, ptr %31, i64 8
  store ptr %32, ptr %9, align 8
  br label %33

33:                                               ; preds = %23
  %34 = load i64, ptr %12, align 8
  %35 = add i64 %34, 1
  store i64 %35, ptr %12, align 8
  br label %19, !llvm.loop !11

36:                                               ; preds = %19
  ret void
}