; Function Attrs: mustprogress nofree norecurse nosync nounwind uwtable
define void @_ZN5faiss14fvec_madd_simdEmPKffS1_Pf(i64 noundef %0, ptr nocapture noundef readonly %1, float noundef %2, ptr nocapture noundef readonly %3, ptr nocapture noundef writeonly %4) local_unnamed_addr #15 {
  %6 = alloca %"struct.faiss::simd8float32", align 4
  %7 = alloca %"struct.faiss::simd8float32", align 4
  %8 = alloca %"struct.faiss::simd8float32", align 4
  %9 = alloca %"struct.faiss::simd8float32", align 4
  br label %10

10:                                               ; preds = %10, %5
  %indvars.iv.i.i = phi i64 [ 0, %5 ], [ %indvars.iv.next.i.i, %10 ]
  %11 = getelementptr inbounds [8 x float], ptr %6, i64 0, i64 %indvars.iv.i.i
  store float %2, ptr %11, align 4
  %indvars.iv.next.i.i = add nuw nsw i64 %indvars.iv.i.i, 1
  %exitcond.not.i.i = icmp eq i64 %indvars.iv.next.i.i, 8
  br i1 %exitcond.not.i.i, label %_ZN5faiss12simd8float32C2Ef.exit, label %10, !llvm.loop !11

_ZN5faiss12simd8float32C2Ef.exit:                 ; preds = %10
  %12 = lshr i64 %0, 3
  %.not = icmp ult i64 %0, 8
  br i1 %.not, label %._crit_edge, label %.lr.ph

.lr.ph:                                           ; preds = %_ZN5faiss12simd8float32C2Ef.exit, %_ZN5faiss5fmaddERKNS_12simd8float32ES2_S2_.exit
  %.016 = phi i64 [ %25, %_ZN5faiss5fmaddERKNS_12simd8float32ES2_S2_.exit ], [ 0, %_ZN5faiss12simd8float32C2Ef.exit ]
  %.01015 = phi ptr [ %22, %_ZN5faiss5fmaddERKNS_12simd8float32ES2_S2_.exit ], [ %4, %_ZN5faiss12simd8float32C2Ef.exit ]
  %.01114 = phi ptr [ %24, %_ZN5faiss5fmaddERKNS_12simd8float32ES2_S2_.exit ], [ %3, %_ZN5faiss12simd8float32C2Ef.exit ]
  %.01213 = phi ptr [ %23, %_ZN5faiss5fmaddERKNS_12simd8float32ES2_S2_.exit ], [ %1, %_ZN5faiss12simd8float32C2Ef.exit ]
  call void @llvm.memcpy.p0.p0.i64(ptr noundef nonnull align 4 dereferenceable(32) %7, ptr noundef nonnull align 1 dereferenceable(32) %.01213, i64 32, i1 false)
  call void @llvm.memcpy.p0.p0.i64(ptr noundef nonnull align 4 dereferenceable(32) %8, ptr noundef nonnull align 1 dereferenceable(32) %.01114, i64 32, i1 false)
  tail call void @llvm.experimental.noalias.scope.decl(metadata !12)
  br label %13

13:                                               ; preds = %13, %.lr.ph
  %indvars.iv.i = phi i64 [ 0, %.lr.ph ], [ %indvars.iv.next.i, %13 ]
  %14 = getelementptr inbounds [8 x float], ptr %6, i64 0, i64 %indvars.iv.i
  %15 = load float, ptr %14, align 4, !noalias !12
  %16 = getelementptr inbounds [8 x float], ptr %8, i64 0, i64 %indvars.iv.i
  %17 = load float, ptr %16, align 4, !noalias !12
  %18 = getelementptr inbounds [8 x float], ptr %7, i64 0, i64 %indvars.iv.i
  %19 = load float, ptr %18, align 4, !noalias !12
  %20 = tail call float @llvm.fmuladd.f32(float %15, float %17, float %19)
  %21 = getelementptr inbounds [8 x float], ptr %9, i64 0, i64 %indvars.iv.i
  store float %20, ptr %21, align 4, !alias.scope !12
  %indvars.iv.next.i = add nuw nsw i64 %indvars.iv.i, 1
  %exitcond.not.i = icmp eq i64 %indvars.iv.next.i, 8
  br i1 %exitcond.not.i, label %_ZN5faiss5fmaddERKNS_12simd8float32ES2_S2_.exit, label %13, !llvm.loop !15

_ZN5faiss5fmaddERKNS_12simd8float32ES2_S2_.exit:  ; preds = %13
  call void @llvm.memcpy.p0.p0.i64(ptr noundef nonnull align 1 dereferenceable(32) %.01015, ptr noundef nonnull align 4 dereferenceable(32) %9, i64 32, i1 false)
  %22 = getelementptr inbounds i8, ptr %.01015, i64 32
  %23 = getelementptr inbounds i8, ptr %.01213, i64 32
  %24 = getelementptr inbounds i8, ptr %.01114, i64 32
  %25 = add nuw nsw i64 %.016, 1
  %exitcond.not = icmp eq i64 %25, %12
  br i1 %exitcond.not, label %._crit_edge, label %.lr.ph, !llvm.loop !16

._crit_edge:                                      ; preds = %_ZN5faiss5fmaddERKNS_12simd8float32ES2_S2_.exit, %_ZN5faiss12simd8float32C2Ef.exit
  ret void
}